target datalayout = "e-m:e-p270:32:32-p271:32:32-p272:64:64-i64:64-i128:128-f80:128-n8:16:32:64-S128"
target triple = "x86_64-pc-linux-gnu"

%struct._PyXIData_lookup_context_t = type { ptr, ptr, ptr }

@.str.80 = private unnamed_addr constant [39 x i8] c"../cpython/Modules/_testinternalcapi.c\00", align 1
@.str.256 = private unnamed_addr constant [23 x i8] c"O:get_crossinterp_data\00", align 1
@.str.257 = private unnamed_addr constant [29 x i8] c"_PyXIData_Release(data) == 0\00", align 1
@__PRETTY_FUNCTION__.get_crossinterp_data = private unnamed_addr constant [55 x i8] c"PyObject *get_crossinterp_data(PyObject *, PyObject *)\00", align 1

; Function Attrs: nounwind uwtable
define internal ptr @get_crossinterp_data(ptr noundef %0, ptr noundef %1) #0 {
  %3 = alloca ptr, align 8
  %4 = alloca ptr, align 8
  %5 = alloca ptr, align 8
  %6 = alloca ptr, align 8
  %7 = alloca %struct._PyXIData_lookup_context_t, align 8
  %8 = alloca i32, align 4
  %9 = alloca ptr, align 8
  %10 = alloca ptr, align 8
  %11 = alloca ptr, align 8
  store ptr %0, ptr %4, align 8, !tbaa !3
  store ptr %1, ptr %5, align 8, !tbaa !3
  call void @llvm.lifetime.start.p0(i64 8, ptr %6) #10
  %12 = call ptr @PyInterpreterState_Get()
  store ptr %12, ptr %6, align 8, !tbaa !49
  call void @llvm.lifetime.start.p0(i64 24, ptr %7) #10
  %13 = load ptr, ptr %6, align 8, !tbaa !49
  %14 = call i32 @_PyXIData_GetLookupContext(ptr noundef %13, ptr noundef %7)
  %15 = icmp slt i32 %14, 0
  br i1 %15, label %16, label %17

16:                                               ; preds = %2
  store ptr null, ptr %3, align 8
  store i32 1, ptr %8, align 4
  br label %52

17:                                               ; preds = %2
  call void @llvm.lifetime.start.p0(i64 8, ptr %9) #10
  store ptr null, ptr %9, align 8, !tbaa !3
  %18 = load ptr, ptr %5, align 8, !tbaa !3
  %19 = call i32 (ptr, ptr, ...) @PyArg_ParseTuple(ptr noundef %18, ptr noundef @.str.256, ptr noundef %9)
  %20 = icmp ne i32 %19, 0
  br i1 %20, label %22, label %21

21:                                               ; preds = %17
  store ptr null, ptr %3, align 8
  store i32 1, ptr %8, align 4
  br label %51

22:                                               ; preds = %17
  call void @llvm.lifetime.start.p0(i64 8, ptr %10) #10
  %23 = call ptr @_PyXIData_New()
  store ptr %23, ptr %10, align 8, !tbaa !242
  %24 = load ptr, ptr %10, align 8, !tbaa !242
  %25 = icmp eq ptr %24, null
  br i1 %25, label %26, label %27

26:                                               ; preds = %22
  store ptr null, ptr %3, align 8
  store i32 1, ptr %8, align 4
  br label %50

27:                                               ; preds = %22
  %28 = load ptr, ptr %9, align 8, !tbaa !3
  %29 = load ptr, ptr %10, align 8, !tbaa !242
  %30 = call i32 @_PyObject_GetXIData(ptr noundef %7, ptr noundef %28, ptr noundef %29)
  %31 = icmp ne i32 %30, 0
  br i1 %31, label %32, label %34

32:                                               ; preds = %27
  %33 = load ptr, ptr %10, align 8, !tbaa !242
  call void @_PyXIData_Free(ptr noundef %33)
  store ptr null, ptr %3, align 8
  store i32 1, ptr %8, align 4
  br label %50

34:                                               ; preds = %27
  call void @llvm.lifetime.start.p0(i64 8, ptr %11) #10
  %35 = load ptr, ptr %10, align 8, !tbaa !242
  %36 = call ptr @PyCapsule_New(ptr noundef %35, ptr noundef null, ptr noundef @_xid_capsule_destructor)
  store ptr %36, ptr %11, align 8, !tbaa !3
  %37 = load ptr, ptr %11, align 8, !tbaa !3
  %38 = icmp eq ptr %37, null
  br i1 %38, label %39, label %48

39:                                               ; preds = %34
  %40 = load ptr, ptr %10, align 8, !tbaa !242
  %41 = call i32 @_PyXIData_Release(ptr noundef %40)
  %42 = icmp eq i32 %41, 0
  br i1 %42, label %43, label %44

43:                                               ; preds = %39
  br label %46

44:                                               ; preds = %39
  call void @__assert_fail(ptr noundef @.str.257, ptr noundef @.str.80, i32 noundef 1714, ptr noundef @__PRETTY_FUNCTION__.get_crossinterp_data) #11
  unreachable

45:                                               ; No predecessors!
  br label %46

46:                                               ; preds = %45, %43
  %47 = load ptr, ptr %10, align 8, !tbaa !242
  call void @_PyXIData_Free(ptr noundef %47)
  br label %48

48:                                               ; preds = %46, %34
  %49 = load ptr, ptr %11, align 8, !tbaa !3
  store ptr %49, ptr %3, align 8
  store i32 1, ptr %8, align 4
  call void @llvm.lifetime.end.p0(i64 8, ptr %11) #10
  br label %50

50:                                               ; preds = %48, %32, %26
  call void @llvm.lifetime.end.p0(i64 8, ptr %10) #10
  br label %51

51:                                               ; preds = %50, %21
  call void @llvm.lifetime.end.p0(i64 8, ptr %9) #10
  br label %52

52:                                               ; preds = %51, %16
  call void @llvm.lifetime.end.p0(i64 24, ptr %7) #10
  call void @llvm.lifetime.end.p0(i64 8, ptr %6) #10
  %53 = load ptr, ptr %3, align 8
  ret ptr %53
}