; Function Attrs: nounwind uwtable
define internal ptr @get_crossinterp_data(ptr readnone captures(none) %0, ptr noundef %1) #0 {
  %3 = alloca %struct._PyXIData_lookup_context_t, align 8
  %4 = alloca ptr, align 8
  %5 = tail call ptr @PyInterpreterState_Get() #11
  call void @llvm.lifetime.start.p0(i64 24, ptr nonnull %3) #11
  %6 = call i32 @_PyXIData_GetLookupContext(ptr noundef %5, ptr noundef nonnull %3) #11
  %7 = icmp slt i32 %6, 0
  br i1 %7, label %24, label %8

8:                                                ; preds = %2
  call void @llvm.lifetime.start.p0(i64 8, ptr nonnull %4) #11
  store ptr null, ptr %4, align 8, !tbaa !9
  %9 = call i32 (ptr, ptr, ...) @PyArg_ParseTuple(ptr noundef %1, ptr noundef nonnull @.str.256, ptr noundef nonnull %4) #11
  %.not = icmp eq i32 %9, 0
  br i1 %.not, label %23, label %10

10:                                               ; preds = %8
  %11 = call ptr @_PyXIData_New() #11
  %12 = icmp eq ptr %11, null
  br i1 %12, label %23, label %13

13:                                               ; preds = %10
  %14 = load ptr, ptr %4, align 8, !tbaa !9
  %15 = call i32 @_PyObject_GetXIData(ptr noundef nonnull %3, ptr noundef %14, ptr noundef nonnull %11) #11
  %.not12 = icmp eq i32 %15, 0
  br i1 %.not12, label %16, label %.sink.split

16:                                               ; preds = %13
  %17 = call ptr @PyCapsule_New(ptr noundef nonnull %11, ptr noundef null, ptr noundef nonnull @_xid_capsule_destructor) #11
  %18 = icmp eq ptr %17, null
  br i1 %18, label %19, label %23

19:                                               ; preds = %16
  %20 = call i32 @_PyXIData_Release(ptr noundef nonnull %11) #11
  %21 = icmp eq i32 %20, 0
  br i1 %21, label %.sink.split, label %22

22:                                               ; preds = %19
  call void @__assert_fail(ptr noundef nonnull @.str.257, ptr noundef nonnull @.str.80, i32 noundef 1714, ptr noundef nonnull @__PRETTY_FUNCTION__.get_crossinterp_data) #12
  unreachable

.sink.split:                                      ; preds = %19, %13
  call void @_PyXIData_Free(ptr noundef nonnull %11) #11
  br label %23

23:                                               ; preds = %.sink.split, %10, %16, %8
  %.1 = phi ptr [ null, %8 ], [ null, %10 ], [ %17, %16 ], [ null, %.sink.split ]
  call void @llvm.lifetime.end.p0(i64 8, ptr nonnull %4) #11
  br label %24

24:                                               ; preds = %2, %23
  %.0 = phi ptr [ %.1, %23 ], [ null, %2 ]
  call void @llvm.lifetime.end.p0(i64 24, ptr nonnull %3) #11
  ret ptr %.0
}